target datalayout = "e-m:e-p270:32:32-p271:32:32-p272:64:64-i64:64-i128:128-f80:128-n8:16:32:64-S128"
target triple = "x86_64-pc-linux-gnu"

@wg_handle = internal global ptr null, align 8

; Function Attrs: nounwind null_pointer_is_valid sspstrong uwtable
define internal zeroext i1 @wg_is_valid_message_length(i8 noundef zeroext %0, i32 noundef %1) #3 {
  %3 = alloca i1, align 1
  %4 = alloca i8, align 1
  %5 = alloca i32, align 4
  store i8 %0, ptr %4, align 1
  store i32 %1, ptr %5, align 4
  %6 = load i8, ptr %4, align 1
  %7 = zext i8 %6 to i32
  switch i32 %7, label %20 [
    i32 1, label %8
    i32 2, label %11
    i32 3, label %14
    i32 4, label %17
  ]

8:                                                ; preds = %2
  %9 = load i32, ptr %5, align 4
  %10 = icmp eq i32 %9, 148
  store i1 %10, ptr %3, align 1
  br label %21

11:                                               ; preds = %2
  %12 = load i32, ptr %5, align 4
  %13 = icmp eq i32 %12, 92
  store i1 %13, ptr %3, align 1
  br label %21

14:                                               ; preds = %2
  %15 = load i32, ptr %5, align 4
  %16 = icmp eq i32 %15, 64
  store i1 %16, ptr %3, align 1
  br label %21

17:                                               ; preds = %2
  %18 = load i32, ptr %5, align 4
  %19 = icmp uge i32 %18, 32
  store i1 %19, ptr %3, align 1
  br label %21

20:                                               ; preds = %2
  store i1 false, ptr %3, align 1
  br label %21

21:                                               ; preds = %20, %17, %14, %11, %8
  %22 = load i1, ptr %3, align 1
  ret i1 %22
}

; Function Attrs: null_pointer_is_valid sspstrong uwtable
define internal zeroext i1 @dissect_wg_heur(ptr noundef %0, ptr noundef %1, ptr noundef %2, ptr noundef %3) #0 {
  %5 = alloca i1, align 1
  %6 = alloca ptr, align 8
  %7 = alloca ptr, align 8
  %8 = alloca ptr, align 8
  %9 = alloca ptr, align 8
  %10 = alloca i32, align 4
  %11 = alloca i8, align 1
  %12 = alloca i32, align 4
  %13 = alloca ptr, align 8
  store ptr %0, ptr %6, align 8
  store ptr %1, ptr %7, align 8
  store ptr %2, ptr %8, align 8
  store ptr %3, ptr %9, align 8
  call void @llvm.lifetime.start.p0(i64 4, ptr %10) #19
  call void @llvm.lifetime.start.p0(i64 1, ptr %11) #19
  %14 = load ptr, ptr %6, align 8
  %15 = call i32 @tvb_reported_length(ptr noundef %14)
  %16 = icmp ult i32 %15, 4
  br i1 %16, label %17, label %18

17:                                               ; preds = %4
  store i1 false, ptr %5, align 1
  store i32 1, ptr %12, align 4
  br label %53

18:                                               ; preds = %4
  %19 = load ptr, ptr %6, align 8
  %20 = call zeroext i8 @tvb_get_uint8(ptr noundef %19, i32 noundef 0)
  %21 = zext i8 %20 to i32
  store i32 %21, ptr %10, align 4
  %22 = load ptr, ptr %6, align 8
  %23 = call i32 @tvb_get_ntoh24(ptr noundef %22, i32 noundef 1)
  %24 = icmp eq i32 %23, 0
  %25 = zext i1 %24 to i8
  store i8 %25, ptr %11, align 1
  %26 = load i32, ptr %10, align 4
  %27 = trunc i32 %26 to i8
  %28 = load ptr, ptr %6, align 8
  %29 = call i32 @tvb_reported_length(ptr noundef %28)
  %30 = call zeroext i1 @wg_is_valid_message_length(i8 noundef zeroext %27, i32 noundef %29)
  br i1 %30, label %32, label %31

31:                                               ; preds = %18
  store i1 false, ptr %5, align 1
  store i32 1, ptr %12, align 4
  br label %53

32:                                               ; preds = %18
  %33 = load i32, ptr %10, align 4
  switch i32 %33, label %39 [
    i32 3, label %34
    i32 4, label %34
  ]

34:                                               ; preds = %32, %32
  %35 = load i8, ptr %11, align 1, !range !6, !noundef !7
  %36 = trunc i8 %35 to i1
  br i1 %36, label %38, label %37

37:                                               ; preds = %34
  store i1 false, ptr %5, align 1
  store i32 1, ptr %12, align 4
  br label %53

38:                                               ; preds = %34
  br label %39

39:                                               ; preds = %32, %38
  %40 = load i32, ptr %10, align 4
  %41 = icmp eq i32 %40, 1
  br i1 %41, label %42, label %47

42:                                               ; preds = %39
  call void @llvm.lifetime.start.p0(i64 8, ptr %13) #19
  %43 = load ptr, ptr %7, align 8
  %44 = call ptr @find_or_create_conversation(ptr noundef %43)
  store ptr %44, ptr %13, align 8
  %45 = load ptr, ptr %13, align 8
  %46 = load ptr, ptr @wg_handle, align 8
  call void @conversation_set_dissector(ptr noundef %45, ptr noundef %46)
  call void @llvm.lifetime.end.p0(i64 8, ptr %13) #19
  br label %47

47:                                               ; preds = %42, %39
  %48 = load ptr, ptr %6, align 8
  %49 = load ptr, ptr %7, align 8
  %50 = load ptr, ptr %8, align 8
  %51 = load ptr, ptr %9, align 8
  %52 = call i32 @dissect_wg(ptr noundef %48, ptr noundef %49, ptr noundef %50, ptr noundef %51)
  store i1 true, ptr %5, align 1
  store i32 1, ptr %12, align 4
  br label %53

53:                                               ; preds = %47, %37, %31, %17
  call void @llvm.lifetime.end.p0(i64 1, ptr %11) #19
  call void @llvm.lifetime.end.p0(i64 4, ptr %10) #19
  %54 = load i1, ptr %5, align 1
  ret i1 %54
}