; Function Attrs: null_pointer_is_valid sspstrong uwtable
define internal noundef zeroext i1 @dissect_wg_heur(ptr noundef %0, ptr noundef %1, ptr noundef %2, ptr readnone captures(none) %3) #0 {
  %5 = tail call i32 @tvb_reported_length(ptr noundef %0)
  %6 = icmp ult i32 %5, 4
  br i1 %6, label %wg_is_valid_message_length.exit.thread, label %7

7:                                                ; preds = %4
  %8 = tail call zeroext i8 @tvb_get_uint8(ptr noundef %0, i32 noundef 0)
  %9 = tail call i32 @tvb_get_ntoh24(ptr noundef %0, i32 noundef 1)
  %10 = icmp ne i32 %9, 0
  %11 = tail call i32 @tvb_reported_length(ptr noundef %0)
  switch i8 %8, label %wg_is_valid_message_length.exit.thread [
    i8 1, label %wg_is_valid_message_length.exit
    i8 2, label %12
    i8 3, label %14
    i8 4, label %16
  ]

12:                                               ; preds = %7
  %13 = icmp eq i32 %11, 92
  br i1 %13, label %.thread19, label %wg_is_valid_message_length.exit.thread

14:                                               ; preds = %7
  %15 = icmp ne i32 %11, 64
  %brmerge = select i1 %15, i1 true, i1 %10
  br i1 %brmerge, label %wg_is_valid_message_length.exit.thread, label %.thread19

16:                                               ; preds = %7
  %17 = icmp ult i32 %11, 32
  %brmerge24 = select i1 %17, i1 true, i1 %10
  br i1 %brmerge24, label %wg_is_valid_message_length.exit.thread, label %.thread19

wg_is_valid_message_length.exit:                  ; preds = %7
  %18 = icmp eq i32 %11, 148
  br i1 %18, label %19, label %wg_is_valid_message_length.exit.thread

19:                                               ; preds = %wg_is_valid_message_length.exit
  %20 = tail call ptr @find_or_create_conversation(ptr noundef %1)
  %21 = load ptr, ptr @wg_handle, align 8
  tail call void @conversation_set_dissector(ptr noundef %20, ptr noundef %21)
  br label %.thread19

.thread19:                                        ; preds = %16, %14, %12, %19
  %22 = tail call i32 @dissect_wg(ptr noundef %0, ptr noundef %1, ptr noundef %2, ptr poison)
  br label %wg_is_valid_message_length.exit.thread

wg_is_valid_message_length.exit.thread:           ; preds = %16, %14, %7, %12, %wg_is_valid_message_length.exit, %4, %.thread19
  %.0 = phi i1 [ true, %.thread19 ], [ false, %4 ], [ false, %wg_is_valid_message_length.exit ], [ false, %16 ], [ false, %14 ], [ false, %12 ], [ false, %7 ]
  ret i1 %.0
}